target datalayout = "e-m:e-p270:32:32-p271:32:32-p272:64:64-i64:64-i128:128-f80:128-n8:16:32:64-S128"
target triple = "x86_64-pc-linux-gnu"

%struct.CFileInStream = type { %struct.ISeekInStream, %struct.CSzFile }
%struct.ISeekInStream = type { ptr, ptr, i64 }
%struct.CSzFile = type { ptr, ptr }
%struct.cl_fmap = type { ptr, ptr, ptr, i64, i64, i64, i64, i8, i8, i8, i64, i64, i64, i64, ptr, ptr, ptr, ptr, ptr, ptr, ptr, i8, [16 x i8], i8, [20 x i8], i8, [32 x i8], ptr, ptr }

; Function Attrs: nounwind uwtable
define internal i32 @FileInStream_fmap_Seek(ptr noundef %0, ptr noundef %1, i32 noundef %2) #0 {
  %4 = alloca i32, align 4
  %5 = alloca ptr, align 8
  %6 = alloca ptr, align 8
  %7 = alloca i32, align 4
  %8 = alloca ptr, align 8
  store ptr %0, ptr %5, align 8
  store ptr %1, ptr %6, align 8
  store i32 %2, ptr %7, align 4
  %9 = load ptr, ptr %5, align 8
  store ptr %9, ptr %8, align 8
  %10 = load i32, ptr %7, align 4
  switch i32 %10, label %48 [
    i32 0, label %11
    i32 1, label %17
    i32 2, label %30
  ]

11:                                               ; preds = %3
  %12 = load ptr, ptr %6, align 8
  %13 = load i64, ptr %12, align 8
  %14 = load ptr, ptr %8, align 8
  %15 = getelementptr inbounds %struct.CFileInStream, ptr %14, i32 0, i32 0
  %16 = getelementptr inbounds %struct.ISeekInStream, ptr %15, i32 0, i32 2
  store i64 %13, ptr %16, align 8
  br label %49

17:                                               ; preds = %3
  %18 = load ptr, ptr %6, align 8
  %19 = load i64, ptr %18, align 8
  %20 = load ptr, ptr %8, align 8
  %21 = getelementptr inbounds %struct.CFileInStream, ptr %20, i32 0, i32 0
  %22 = getelementptr inbounds %struct.ISeekInStream, ptr %21, i32 0, i32 2
  %23 = load i64, ptr %22, align 8
  %24 = add nsw i64 %23, %19
  store i64 %24, ptr %22, align 8
  %25 = load ptr, ptr %8, align 8
  %26 = getelementptr inbounds %struct.CFileInStream, ptr %25, i32 0, i32 0
  %27 = getelementptr inbounds %struct.ISeekInStream, ptr %26, i32 0, i32 2
  %28 = load i64, ptr %27, align 8
  %29 = load ptr, ptr %6, align 8
  store i64 %28, ptr %29, align 8
  br label %49

30:                                               ; preds = %3
  %31 = load ptr, ptr %8, align 8
  %32 = getelementptr inbounds %struct.CFileInStream, ptr %31, i32 0, i32 1
  %33 = getelementptr inbounds %struct.CSzFile, ptr %32, i32 0, i32 1
  %34 = load ptr, ptr %33, align 8
  %35 = getelementptr inbounds %struct.cl_fmap, ptr %34, i32 0, i32 13
  %36 = load i64, ptr %35, align 8
  %37 = load ptr, ptr %6, align 8
  %38 = load i64, ptr %37, align 8
  %39 = add i64 %36, %38
  %40 = load ptr, ptr %8, align 8
  %41 = getelementptr inbounds %struct.CFileInStream, ptr %40, i32 0, i32 0
  %42 = getelementptr inbounds %struct.ISeekInStream, ptr %41, i32 0, i32 2
  store i64 %39, ptr %42, align 8
  %43 = load ptr, ptr %8, align 8
  %44 = getelementptr inbounds %struct.CFileInStream, ptr %43, i32 0, i32 0
  %45 = getelementptr inbounds %struct.ISeekInStream, ptr %44, i32 0, i32 2
  %46 = load i64, ptr %45, align 8
  %47 = load ptr, ptr %6, align 8
  store i64 %46, ptr %47, align 8
  br label %49

48:                                               ; preds = %3
  store i32 1, ptr %4, align 4
  br label %50

49:                                               ; preds = %30, %17, %11
  store i32 0, ptr %4, align 4
  br label %50

50:                                               ; preds = %49, %48
  %51 = load i32, ptr %4, align 4
  ret i32 %51
}