; Function Attrs: mustprogress nofree norecurse nosync nounwind willreturn memory(read, argmem: readwrite, inaccessiblemem: none) uwtable
define internal noundef i32 @FileInStream_fmap_Seek(ptr nocapture noundef %0, ptr nocapture noundef %1, i32 noundef %2) #1 {
  switch i32 %2, label %20 [
    i32 0, label %4
    i32 1, label %7
    i32 2, label %12
  ]

4:                                                ; preds = %3
  %5 = load i64, ptr %1, align 8
  %6 = getelementptr inbounds i8, ptr %0, i64 16
  store i64 %5, ptr %6, align 8
  br label %20

7:                                                ; preds = %3
  %8 = load i64, ptr %1, align 8
  %9 = getelementptr inbounds i8, ptr %0, i64 16
  %10 = load i64, ptr %9, align 8
  %11 = add nsw i64 %10, %8
  store i64 %11, ptr %9, align 8
  store i64 %11, ptr %1, align 8
  br label %20

12:                                               ; preds = %3
  %13 = getelementptr inbounds i8, ptr %0, i64 32
  %14 = load ptr, ptr %13, align 8
  %15 = getelementptr inbounds i8, ptr %14, i64 88
  %16 = load i64, ptr %15, align 8
  %17 = load i64, ptr %1, align 8
  %18 = add i64 %17, %16
  %19 = getelementptr inbounds i8, ptr %0, i64 16
  store i64 %18, ptr %19, align 8
  store i64 %18, ptr %1, align 8
  br label %20

20:                                               ; preds = %4, %7, %12, %3
  %.0 = phi i32 [ 1, %3 ], [ 0, %12 ], [ 0, %7 ], [ 0, %4 ]
  ret i32 %.0
}